Certificate:
    Data:
        Version: 3 (0x2)
        Serial Number: 4137 (0x1029)
    Signature Algorithm: sha256WithRSAEncryption
        Issuer: C=CN, ST=\xC3\xA5\xC2\xB9\xC2\xBF\xC3\xA4\xC2\xB8\xC2\x9C, L=\xC3\xA5\xC2\xB9\xC2\xBF\xC3\xA5\xC2\xB7\xC2\x9E, O=ucsmy, OU=ucsmy, CN=ca
        Validity
            Not Before: Jun 12 02:08:23 2017 GMT
            Not After : May 19 02:08:23 2117 GMT
        Subject: C=CN, ST=\xC3\xA5\xC2\xB9\xC2\xBF\xC3\xA4\xC2\xB8\xC2\x9C, O=ucsmy, OU=org, CN=zuul
        Subject Public Key Info:
            Public Key Algorithm: rsaEncryption
                Public-Key: (2048 bit)
                Modulus:
                    00:ca:6e:16:bb:bf:07:df:98:36:6d:44:99:b4:39:
                    0d:8f:1a:d0:1b:37:3e:29:e1:5f:81:ad:07:5f:6a:
                    dc:4c:0f:34:4c:04:ff:41:22:9e:2b:55:35:93:0d:
                    62:7b:f1:40:5c:10:d3:78:65:92:a5:db:ca:1f:2e:
                    fb:06:72:6b:f0:99:09:04:06:f9:e5:8a:cd:eb:87:
                    be:9d:ff:69:0b:37:67:59:60:8a:38:85:5f:a3:5f:
                    7c:4d:d6:a2:e3:66:9d:e5:12:b9:33:7d:63:18:fc:
                    77:95:8e:1f:b9:23:a8:4e:93:01:35:ef:18:88:7c:
                    c6:1f:99:bb:86:57:b2:31:17:29:ab:7e:73:23:3a:
                    b6:00:1b:f4:87:0d:c1:d1:dd:af:7f:cc:f5:18:d0:
                    11:ce:9b:51:fd:1c:a8:ac:47:4d:2c:19:3c:d2:02:
                    b7:8e:21:52:88:4e:4a:f3:9c:f2:e1:9c:e8:f9:19:
                    94:e1:8b:ce:5f:4b:5b:0e:2e:37:83:dd:4c:8b:99:
                    92:e5:cc:3b:ec:6d:bc:0f:4e:2a:4f:f4:82:47:57:
                    af:d4:f2:7a:dd:c1:17:dc:62:c0:7b:f5:70:e1:82:
                    1c:b7:11:6d:59:8e:93:c5:8b:6e:c5:8d:1a:1b:53:
                    95:ff:37:18:f3:3e:12:8c:18:56:c0:b2:2c:88:00:
                    74:bb
                Exponent: 65537 (0x10001)
        X509v3 extensions:
            X509v3 Subject Alternative Name: 
                DNS:zuul
    Signature Algorithm: sha256WithRSAEncryption
         78:2a:38:a7:fb:bf:8b:42:b6:fd:a1:94:71:e7:c1:55:01:fd:
         ce:21:f0:bb:88:77:f0:c4:a3:53:29:ee:73:4d:cf:ad:d4:63:
         8b:15:99:c3:ac:c1:a3:65:0f:00:2d:c7:fa:81:67:80:0d:84:
         27:37:b2:da:b7:df:c3:95:0e:d1:e4:eb:2c:7f:9d:2b:19:c4:
         db:b2:6c:20:65:6d:ff:a5:5d:84:0a:6d:c4:cd:7c:b5:2f:aa:
         69:ec:6a:ae:06:56:c2:c6:6e:16:f2:68:b1:e8:2c:47:66:4b:
         68:0e:b2:23:c7:fe:cb:a5:33:bc:77:aa:47:4e:8b:44:ec:d1:
         f1:64:dd:ea:a6:7d:44:c7:85:65:57:f2:8e:32:eb:d8:8e:21:
         ad:22:d4:56:37:c4:89:ad:70:49:c5:ac:f1:c7:66:34:ba:c9:
         a4:1e:da:ee:e6:bb:9c:8d:6a:6c:55:f8:38:8b:00:d2:7a:e6:
         5b:37:31:0e:c4:42:3e:0c:e2:f0:43:11:47:09:35:99:31:b4:
         ac:b4:55:27:bc:c7:22:74:81:49:8d:bd:d1:48:80:7a:90:12:
         6f:71:d5:31:1f:56:d9:f4:77:87:b9:44:57:cf:fc:d7:12:15:
         3a:47:aa:91:92:6f:49:55:b7:ab:6b:00:5f:9d:4c:1a:72:e3:
         99:e3:6b:be
-----BEGIN CERTIFICATE-----
MIIDSjCCAjKgAwIBAgICECkwDQYJKoZIhvcNAQELBQAwaDELMAkGA1UEBhMCQ04x
FTATBgNVBAgMDMOlwrnCv8OkwrjCnDEVMBMGA1UEBwwMw6XCucK/w6XCt8KeMQ4w
DAYDVQQKDAV1Y3NteTEOMAwGA1UECwwFdWNzbXkxCzAJBgNVBAMMAmNhMCAXDTE3
MDYxMjAyMDgyM1oYDzIxMTcwNTE5MDIwODIzWjBRMQswCQYDVQQGEwJDTjEVMBMG
A1UECAwMw6XCucK/w6TCuMKcMQ4wDAYDVQQKDAV1Y3NteTEMMAoGA1UECwwDb3Jn
MQ0wCwYDVQQDDAR6dXVsMIIBIjANBgkqhkiG9w0BAQEFAAOCAQ8AMIIBCgKCAQEA
ym4Wu78H35g2bUSZtDkNjxrQGzc+KeFfga0HX2rcTA80TAT/QSKeK1U1kw1ie/FA
XBDTeGWSpdvKHy77BnJr8JkJBAb55YrN64e+nf9pCzdnWWCKOIVfo198Tdai42ad
5RK5M31jGPx3lY4fuSOoTpMBNe8YiHzGH5m7hleyMRcpq35zIzq2ABv0hw3B0d2v
f8z1GNARzptR/RyorEdNLBk80gK3jiFSiE5K85zy4Zzo+RmU4YvOX0tbDi43g91M
i5mS5cw77G28D04qT/SCR1ev1PJ63cEX3GLAe/Vw4YIctxFtWY6TxYtuxY0aG1OV
/zcY8z4SjBhWwLIsiAB0uwIDAQABoxMwETAPBgNVHREECDAGggR6dXVsMA0GCSqG
SIb3DQEBCwUAA4IBAQB4Kjin+7+LQrb9oZRx58FVAf3OIfC7iHfwxKNTKe5zTc+t
1GOLFZnDrMGjZQ8ALcf6gWeADYQnN7Lat9/DlQ7R5Ossf50rGcTbsmwgZW3/pV2E
Cm3EzXy1L6pp7GquBlbCxm4W8mix6CxHZktoDrIjx/7LpTO8d6pHTotE7NHxZN3q
pn1Ex4VlV/KOMuvYjiGtItRWN8SJrXBJxazxx2Y0usmkHtru5rucjWpsVfg4iwDS
euZbNzEOxEI+DOLwQxFHCTWZMbSstFUnvMcidIFJjb3RSIB6kBJvcdUxH1bZ9HeH
uURXz/zXEhU6R6qRkm9JVberawBfnUwacuOZ42u+
-----END CERTIFICATE-----
